target datalayout = "e-m:e-p270:32:32-p271:32:32-p272:64:64-i64:64-i128:128-f80:128-n8:16:32:64-S128"
target triple = "x86_64-unknown-linux-gnu"

%class.z3_error = type <{ %class.z3_exception, i32, [4 x i8] }>
%class.z3_exception = type { ptr }

@.str = private unnamed_addr constant [14 x i8] c"out of memory\00", align 1
@.str.1 = private unnamed_addr constant [8 x i8] c"timeout\00", align 1
@.str.2 = private unnamed_addr constant [13 x i8] c"parser error\00", align 1
@.str.3 = private unnamed_addr constant [11 x i8] c"unsoundess\00", align 1
@.str.4 = private unnamed_addr constant [15 x i8] c"incompleteness\00", align 1
@.str.5 = private unnamed_addr constant [17 x i8] c"invalid INI file\00", align 1
@.str.6 = private unnamed_addr constant [20 x i8] c"not implemented yet\00", align 1
@.str.7 = private unnamed_addr constant [10 x i8] c"open file\00", align 1
@.str.8 = private unnamed_addr constant [21 x i8] c"invalid command line\00", align 1
@.str.9 = private unnamed_addr constant [15 x i8] c"internal error\00", align 1
@.str.10 = private unnamed_addr constant [11 x i8] c"type error\00", align 1
@.str.11 = private unnamed_addr constant [42 x i8] c"number of configured allocations exceeded\00", align 1
@.str.12 = private unnamed_addr constant [29 x i8] c"unreachable code was reached\00", align 1
@.str.13 = private unnamed_addr constant [14 x i8] c"unknown error\00", align 1

; Function Attrs: mustprogress nounwind uwtable
define hidden noundef ptr @_ZNK8z3_error3msgEv(ptr noundef nonnull align 8 dereferenceable(12) %this) unnamed_addr #4 align 2 {
entry:
  %retval = alloca ptr, align 8
  %this.addr = alloca ptr, align 8
  store ptr %this, ptr %this.addr, align 8
  %this1 = load ptr, ptr %this.addr, align 8
  %m_error_code = getelementptr inbounds %class.z3_error, ptr %this1, i32 0, i32 1
  %0 = load i32, ptr %m_error_code, align 8
  switch i32 %0, label %sw.default [
    i32 101, label %sw.bb
    i32 102, label %sw.bb2
    i32 103, label %sw.bb3
    i32 104, label %sw.bb4
    i32 105, label %sw.bb5
    i32 106, label %sw.bb6
    i32 107, label %sw.bb7
    i32 108, label %sw.bb8
    i32 109, label %sw.bb9
    i32 110, label %sw.bb10
    i32 111, label %sw.bb11
    i32 113, label %sw.bb12
    i32 114, label %sw.bb13
  ]

sw.bb:                                            ; preds = %entry
  store ptr @.str, ptr %retval, align 8
  br label %return

sw.bb2:                                           ; preds = %entry
  store ptr @.str.1, ptr %retval, align 8
  br label %return

sw.bb3:                                           ; preds = %entry
  store ptr @.str.2, ptr %retval, align 8
  br label %return

sw.bb4:                                           ; preds = %entry
  store ptr @.str.3, ptr %retval, align 8
  br label %return

sw.bb5:                                           ; preds = %entry
  store ptr @.str.4, ptr %retval, align 8
  br label %return

sw.bb6:                                           ; preds = %entry
  store ptr @.str.5, ptr %retval, align 8
  br label %return

sw.bb7:                                           ; preds = %entry
  store ptr @.str.6, ptr %retval, align 8
  br label %return

sw.bb8:                                           ; preds = %entry
  store ptr @.str.7, ptr %retval, align 8
  br label %return

sw.bb9:                                           ; preds = %entry
  store ptr @.str.8, ptr %retval, align 8
  br label %return

sw.bb10:                                          ; preds = %entry
  store ptr @.str.9, ptr %retval, align 8
  br label %return

sw.bb11:                                          ; preds = %entry
  store ptr @.str.10, ptr %retval, align 8
  br label %return

sw.bb12:                                          ; preds = %entry
  store ptr @.str.11, ptr %retval, align 8
  br label %return

sw.bb13:                                          ; preds = %entry
  store ptr @.str.12, ptr %retval, align 8
  br label %return

sw.default:                                       ; preds = %entry
  store ptr @.str.13, ptr %retval, align 8
  br label %return

return:                                           ; preds = %sw.default, %sw.bb13, %sw.bb12, %sw.bb11, %sw.bb10, %sw.bb9, %sw.bb8, %sw.bb7, %sw.bb6, %sw.bb5, %sw.bb4, %sw.bb3, %sw.bb2, %sw.bb
  %1 = load ptr, ptr %retval, align 8
  ret ptr %1
}