; Function Attrs: mustprogress nofree norecurse nosync nounwind willreturn memory(argmem: read) uwtable
define hidden noundef nonnull ptr @_ZNK8z3_error3msgEv(ptr nocapture noundef nonnull readonly align 8 dereferenceable(12) %this) unnamed_addr #6 align 2 {
entry:
  %m_error_code = getelementptr inbounds i8, ptr %this, i64 8
  %0 = load i32, ptr %m_error_code, align 8
  %switch.tableidx = add i32 %0, -101
  %1 = icmp ult i32 %switch.tableidx, 14
  br i1 %1, label %switch.lookup, label %return

switch.lookup:                                    ; preds = %entry
  %2 = zext nneg i32 %switch.tableidx to i64
  %switch.gep = getelementptr inbounds [14 x ptr], ptr @switch.table._ZNK8z3_error3msgEv, i64 0, i64 %2
  %switch.load = load ptr, ptr %switch.gep, align 8
  br label %return

return:                                           ; preds = %entry, %switch.lookup
  %retval.0 = phi ptr [ %switch.load, %switch.lookup ], [ @.str.13, %entry ]
  ret ptr %retval.0
}